target datalayout = "e-m:e-p270:32:32-p271:32:32-p272:64:64-i64:64-i128:128-f80:128-n8:16:32:64-S128"
target triple = "x86_64-pc-linux-gnu"

%struct.Qureg = type { i32, i32, i32, i64, i64, i32, i32, %struct.ComplexArray, %struct.ComplexArray, %struct.ComplexArray, ptr, ptr, ptr, ptr, ptr, ptr }
%struct.ComplexArray = type { ptr, ptr }
%struct.QuESTEnv = type { i32, i32, ptr, i32, ptr }

@.str = private unnamed_addr constant [32 x i8] c"Reporting state from rank %d [\0A\00", align 1
@.str.2 = private unnamed_addr constant [12 x i8] c"real, imag\0A\00", align 1
@.str.3 = private unnamed_addr constant [19 x i8] c"Reporting state [\0A\00", align 1
@.str.4 = private unnamed_addr constant [14 x i8] c"%.14f, %.14f\0A\00", align 1
@.str.5 = private unnamed_addr constant [3 x i8] c"]\0A\00", align 1
@.str.6 = private unnamed_addr constant [85 x i8] c"Error: reportStateToScreen will not print output for systems of more than 5 qubits.\0A\00", align 1

; Function Attrs: nounwind uwtable
define void @statevec_reportStateToScreen(ptr noundef byval(%struct.Qureg) align 8 %0, ptr noundef byval(%struct.QuESTEnv) align 8 %1, i32 noundef %2) #0 {
  %4 = alloca i32, align 4
  %5 = alloca i64, align 8
  %6 = alloca i32, align 4
  store i32 %2, ptr %4, align 4, !tbaa !8
  call void @llvm.lifetime.start.p0(i64 8, ptr %5) #3
  call void @llvm.lifetime.start.p0(i64 4, ptr %6) #3
  %7 = getelementptr inbounds nuw %struct.Qureg, ptr %0, i32 0, i32 2
  %8 = load i32, ptr %7, align 8, !tbaa !45
  %9 = icmp sle i32 %8, 5
  br i1 %9, label %10, label %76

10:                                               ; preds = %3
  store i32 0, ptr %6, align 4, !tbaa !8
  br label %11

11:                                               ; preds = %72, %10
  %12 = load i32, ptr %6, align 4, !tbaa !8
  %13 = getelementptr inbounds nuw %struct.Qureg, ptr %0, i32 0, i32 6
  %14 = load i32, ptr %13, align 4, !tbaa !47
  %15 = icmp slt i32 %12, %14
  br i1 %15, label %16, label %75

16:                                               ; preds = %11
  %17 = getelementptr inbounds nuw %struct.Qureg, ptr %0, i32 0, i32 5
  %18 = load i32, ptr %17, align 8, !tbaa !26
  %19 = load i32, ptr %6, align 4, !tbaa !8
  %20 = icmp eq i32 %18, %19
  br i1 %20, label %21, label %71

21:                                               ; preds = %16
  %22 = load i32, ptr %4, align 4, !tbaa !8
  %23 = icmp ne i32 %22, 0
  br i1 %23, label %24, label %29

24:                                               ; preds = %21
  %25 = getelementptr inbounds nuw %struct.Qureg, ptr %0, i32 0, i32 5
  %26 = load i32, ptr %25, align 8, !tbaa !26
  %27 = call i32 (ptr, ...) @printf(ptr noundef @.str, i32 noundef %26)
  %28 = call i32 (ptr, ...) @printf(ptr noundef @.str.2)
  br label %36

29:                                               ; preds = %21
  %30 = load i32, ptr %6, align 4, !tbaa !8
  %31 = icmp eq i32 %30, 0
  br i1 %31, label %32, label %35

32:                                               ; preds = %29
  %33 = call i32 (ptr, ...) @printf(ptr noundef @.str.3)
  %34 = call i32 (ptr, ...) @printf(ptr noundef @.str.2)
  br label %35

35:                                               ; preds = %32, %29
  br label %36

36:                                               ; preds = %35, %24
  store i64 0, ptr %5, align 8, !tbaa !4
  br label %37

37:                                               ; preds = %56, %36
  %38 = load i64, ptr %5, align 8, !tbaa !4
  %39 = getelementptr inbounds nuw %struct.Qureg, ptr %0, i32 0, i32 3
  %40 = load i64, ptr %39, align 8, !tbaa !12
  %41 = icmp slt i64 %38, %40
  br i1 %41, label %42, label %59

42:                                               ; preds = %37
  %43 = getelementptr inbounds nuw %struct.Qureg, ptr %0, i32 0, i32 7
  %44 = getelementptr inbounds nuw %struct.ComplexArray, ptr %43, i32 0, i32 0
  %45 = load ptr, ptr %44, align 8, !tbaa !27
  %46 = load i64, ptr %5, align 8, !tbaa !4
  %47 = getelementptr inbounds double, ptr %45, i64 %46
  %48 = load double, ptr %47, align 8, !tbaa !10
  %49 = getelementptr inbounds nuw %struct.Qureg, ptr %0, i32 0, i32 7
  %50 = getelementptr inbounds nuw %struct.ComplexArray, ptr %49, i32 0, i32 1
  %51 = load ptr, ptr %50, align 8, !tbaa !28
  %52 = load i64, ptr %5, align 8, !tbaa !4
  %53 = getelementptr inbounds double, ptr %51, i64 %52
  %54 = load double, ptr %53, align 8, !tbaa !10
  %55 = call i32 (ptr, ...) @printf(ptr noundef @.str.4, double noundef %48, double noundef %54)
  br label %56

56:                                               ; preds = %42
  %57 = load i64, ptr %5, align 8, !tbaa !4
  %58 = add nsw i64 %57, 1
  store i64 %58, ptr %5, align 8, !tbaa !4
  br label %37

59:                                               ; preds = %37
  %60 = load i32, ptr %4, align 4, !tbaa !8
  %61 = icmp ne i32 %60, 0
  br i1 %61, label %68, label %62

62:                                               ; preds = %59
  %63 = load i32, ptr %6, align 4, !tbaa !8
  %64 = getelementptr inbounds nuw %struct.Qureg, ptr %0, i32 0, i32 6
  %65 = load i32, ptr %64, align 4, !tbaa !47
  %66 = sub nsw i32 %65, 1
  %67 = icmp eq i32 %63, %66
  br i1 %67, label %68, label %70

68:                                               ; preds = %62, %59
  %69 = call i32 (ptr, ...) @printf(ptr noundef @.str.5)
  br label %70

70:                                               ; preds = %68, %62
  br label %71

71:                                               ; preds = %70, %16
  call void @syncQuESTEnv(ptr noundef byval(%struct.QuESTEnv) align 8 %1)
  br label %72

72:                                               ; preds = %71
  %73 = load i32, ptr %6, align 4, !tbaa !8
  %74 = add nsw i32 %73, 1
  store i32 %74, ptr %6, align 4, !tbaa !8
  br label %11

75:                                               ; preds = %11
  br label %78

76:                                               ; preds = %3
  %77 = call i32 (ptr, ...) @printf(ptr noundef @.str.6)
  br label %78

78:                                               ; preds = %76, %75
  call void @llvm.lifetime.end.p0(i64 4, ptr %6) #3
  call void @llvm.lifetime.end.p0(i64 8, ptr %5) #3
  ret void
}