; Function Attrs: nounwind uwtable
define void @statevec_reportStateToScreen(ptr noundef readonly byval(%struct.Qureg) align 8 captures(none) %0, ptr noundef readonly byval(%struct.QuESTEnv) align 8 captures(none) %1, i32 noundef %2) local_unnamed_addr #1 {
  %4 = getelementptr inbounds nuw i8, ptr %0, i64 8
  %5 = load i32, ptr %4, align 8, !tbaa !31
  %6 = icmp slt i32 %5, 6
  br i1 %6, label %.preheader, label %57

.preheader:                                       ; preds = %3
  %7 = getelementptr inbounds nuw i8, ptr %0, i64 36
  %8 = load i32, ptr %7, align 4, !tbaa !33
  %9 = icmp sgt i32 %8, 0
  br i1 %9, label %.lr.ph20, label %.loopexit

.lr.ph20:                                         ; preds = %.preheader
  %10 = getelementptr inbounds nuw i8, ptr %0, i64 32
  %11 = load i32, ptr %10, align 8, !tbaa !19
  %.not.not = icmp eq i32 %2, 0
  %12 = getelementptr inbounds nuw i8, ptr %0, i64 16
  %13 = load i64, ptr %12, align 8
  %.fr27 = freeze i64 %13
  %14 = icmp sgt i64 %.fr27, 0
  %15 = getelementptr inbounds nuw i8, ptr %0, i64 40
  %16 = load ptr, ptr %15, align 8
  %17 = getelementptr inbounds nuw i8, ptr %0, i64 48
  %18 = load ptr, ptr %17, align 8
  br i1 %.not.not, label %.lr.ph20.split, label %.lr.ph20.split.us

.lr.ph20.split.us:                                ; preds = %.lr.ph20
  br i1 %14, label %.lr.ph20.split.us.split.us, label %.lr.ph20.split.us.split

.lr.ph20.split.us.split.us:                       ; preds = %.lr.ph20.split.us, %21
  %.019.us.us = phi i32 [ %22, %21 ], [ 0, %.lr.ph20.split.us ]
  %19 = icmp eq i32 %11, %.019.us.us
  br i1 %19, label %.lr.ph.us.us, label %21

.lr.ph.us.us:                                     ; preds = %.lr.ph20.split.us.split.us
  %20 = tail call i32 (ptr, ...) @printf(ptr noundef nonnull dereferenceable(1) @.str, i32 noundef %11)
  %puts15.us.us = tail call i32 @puts(ptr nonnull dereferenceable(1) @str.3)
  br label %23

21:                                               ; preds = %._crit_edge.us.us, %.lr.ph20.split.us.split.us
  tail call void @syncQuESTEnv(ptr noundef nonnull byval(%struct.QuESTEnv) align 8 %1) #4
  %22 = add nuw nsw i32 %.019.us.us, 1
  %exitcond32.not = icmp eq i32 %22, %8
  br i1 %exitcond32.not, label %.loopexit, label %.lr.ph20.split.us.split.us

23:                                               ; preds = %.lr.ph.us.us, %23
  %.01118.us.us = phi i64 [ 0, %.lr.ph.us.us ], [ %29, %23 ]
  %24 = getelementptr inbounds nuw double, ptr %16, i64 %.01118.us.us
  %25 = load double, ptr %24, align 8, !tbaa !4
  %26 = getelementptr inbounds nuw double, ptr %18, i64 %.01118.us.us
  %27 = load double, ptr %26, align 8, !tbaa !4
  %28 = tail call i32 (ptr, ...) @printf(ptr noundef nonnull dereferenceable(1) @.str.4, double noundef %25, double noundef %27)
  %29 = add nuw nsw i64 %.01118.us.us, 1
  %exitcond31.not = icmp eq i64 %29, %.fr27
  br i1 %exitcond31.not, label %._crit_edge.us.us, label %23

._crit_edge.us.us:                                ; preds = %23
  %puts16.us.us = tail call i32 @puts(ptr nonnull dereferenceable(1) @str.4)
  br label %21

.lr.ph20.split.us.split:                          ; preds = %.lr.ph20.split.us, %33
  %.019.us = phi i32 [ %34, %33 ], [ 0, %.lr.ph20.split.us ]
  %30 = icmp eq i32 %11, %.019.us
  br i1 %30, label %31, label %33

31:                                               ; preds = %.lr.ph20.split.us.split
  %32 = tail call i32 (ptr, ...) @printf(ptr noundef nonnull dereferenceable(1) @.str, i32 noundef %11)
  %puts15.us = tail call i32 @puts(ptr nonnull dereferenceable(1) @str.3)
  %puts16.us = tail call i32 @puts(ptr nonnull dereferenceable(1) @str.4)
  br label %33

33:                                               ; preds = %31, %.lr.ph20.split.us.split
  tail call void @syncQuESTEnv(ptr noundef nonnull byval(%struct.QuESTEnv) align 8 %1) #4
  %34 = add nuw nsw i32 %.019.us, 1
  %exitcond.not = icmp eq i32 %34, %8
  br i1 %exitcond.not, label %.loopexit, label %.lr.ph20.split.us.split

.lr.ph20.split:                                   ; preds = %.lr.ph20
  %35 = add nsw i32 %8, -1
  %36 = icmp eq i32 %11, 0
  %37 = icmp eq i32 %11, %35
  br i1 %14, label %.lr.ph20.split.split.us, label %.lr.ph20.split.split

.lr.ph20.split.split.us:                          ; preds = %.lr.ph20.split, %42
  %.019.us21 = phi i32 [ %43, %42 ], [ 0, %.lr.ph20.split ]
  %38 = icmp eq i32 %11, %.019.us21
  br i1 %38, label %39, label %42

39:                                               ; preds = %.lr.ph20.split.split.us
  br i1 %36, label %40, label %.lr.ph.us24.preheader

.lr.ph.us24.preheader:                            ; preds = %40, %39
  br label %.lr.ph.us24

40:                                               ; preds = %39
  %puts13.us = tail call i32 @puts(ptr nonnull dereferenceable(1) @str.1)
  %puts14.us = tail call i32 @puts(ptr nonnull dereferenceable(1) @str.3)
  br label %.lr.ph.us24.preheader

41:                                               ; preds = %._crit_edge.us25
  %puts16.us22 = tail call i32 @puts(ptr nonnull dereferenceable(1) @str.4)
  br label %42

42:                                               ; preds = %41, %._crit_edge.us25, %.lr.ph20.split.split.us
  tail call void @syncQuESTEnv(ptr noundef nonnull byval(%struct.QuESTEnv) align 8 %1) #4
  %43 = add nuw nsw i32 %.019.us21, 1
  %exitcond35.not = icmp eq i32 %43, %8
  br i1 %exitcond35.not, label %.loopexit, label %.lr.ph20.split.split.us

.lr.ph.us24:                                      ; preds = %.lr.ph.us24.preheader, %.lr.ph.us24
  %.01118.us23 = phi i64 [ %49, %.lr.ph.us24 ], [ 0, %.lr.ph.us24.preheader ]
  %44 = getelementptr inbounds nuw double, ptr %16, i64 %.01118.us23
  %45 = load double, ptr %44, align 8, !tbaa !4
  %46 = getelementptr inbounds nuw double, ptr %18, i64 %.01118.us23
  %47 = load double, ptr %46, align 8, !tbaa !4
  %48 = tail call i32 (ptr, ...) @printf(ptr noundef nonnull dereferenceable(1) @.str.4, double noundef %45, double noundef %47)
  %49 = add nuw nsw i64 %.01118.us23, 1
  %exitcond34.not = icmp eq i64 %49, %.fr27
  br i1 %exitcond34.not, label %._crit_edge.us25, label %.lr.ph.us24

._crit_edge.us25:                                 ; preds = %.lr.ph.us24
  br i1 %37, label %41, label %42

.lr.ph20.split.split:                             ; preds = %.lr.ph20.split, %55
  %.019 = phi i32 [ %56, %55 ], [ 0, %.lr.ph20.split ]
  %50 = icmp eq i32 %11, %.019
  br i1 %50, label %51, label %55

51:                                               ; preds = %.lr.ph20.split.split
  br i1 %36, label %52, label %53

52:                                               ; preds = %51
  %puts13 = tail call i32 @puts(ptr nonnull dereferenceable(1) @str.1)
  %puts14 = tail call i32 @puts(ptr nonnull dereferenceable(1) @str.3)
  br label %53

53:                                               ; preds = %51, %52
  br i1 %37, label %54, label %55

54:                                               ; preds = %53
  %puts16 = tail call i32 @puts(ptr nonnull dereferenceable(1) @str.4)
  br label %55

55:                                               ; preds = %53, %54, %.lr.ph20.split.split
  tail call void @syncQuESTEnv(ptr noundef nonnull byval(%struct.QuESTEnv) align 8 %1) #4
  %56 = add nuw nsw i32 %.019, 1
  %exitcond33.not = icmp eq i32 %56, %8
  br i1 %exitcond33.not, label %.loopexit, label %.lr.ph20.split.split

57:                                               ; preds = %3
  %puts = tail call i32 @puts(ptr nonnull dereferenceable(1) @str)
  br label %.loopexit

.loopexit:                                        ; preds = %33, %21, %55, %42, %.preheader, %57
  ret void
}